target datalayout = "e-m:e-p270:32:32-p271:32:32-p272:64:64-i64:64-i128:128-f80:128-n8:16:32:64-S128"
target triple = "x86_64-pc-linux-gnu"

%struct.SRP_gN_cache_st = type { ptr, ptr }

@.str = private unnamed_addr constant [32 x i8] c"../openssl/crypto/srp/srp_vfy.c\00", align 1

; Function Attrs: nounwind uwtable
define internal void @SRP_gN_free(ptr noundef %0) #0 {
  %2 = alloca ptr, align 8
  store ptr %0, ptr %2, align 8, !tbaa !57
  %3 = load ptr, ptr %2, align 8, !tbaa !57
  %4 = icmp eq ptr %3, null
  br i1 %4, label %5, label %6

5:                                                ; preds = %1
  br label %14

6:                                                ; preds = %1
  %7 = load ptr, ptr %2, align 8, !tbaa !57
  %8 = getelementptr inbounds nuw %struct.SRP_gN_cache_st, ptr %7, i32 0, i32 0
  %9 = load ptr, ptr %8, align 8, !tbaa !59
  call void @CRYPTO_free(ptr noundef %9, ptr noundef @.str, i32 noundef 341)
  %10 = load ptr, ptr %2, align 8, !tbaa !57
  %11 = getelementptr inbounds nuw %struct.SRP_gN_cache_st, ptr %10, i32 0, i32 1
  %12 = load ptr, ptr %11, align 8, !tbaa !61
  call void @BN_free(ptr noundef %12)
  %13 = load ptr, ptr %2, align 8, !tbaa !57
  call void @CRYPTO_free(ptr noundef %13, ptr noundef @.str, i32 noundef 343)
  br label %14

14:                                               ; preds = %6, %5
  ret void
}

; Function Attrs: inlinehint nounwind uwtable
define internal ptr @ossl_check_SRP_gN_cache_type(ptr noundef %0) #3 {
  %2 = alloca ptr, align 8
  store ptr %0, ptr %2, align 8, !tbaa !57
  %3 = load ptr, ptr %2, align 8, !tbaa !57
  ret ptr %3
}

; Function Attrs: inlinehint nounwind uwtable
define internal ptr @ossl_check_SRP_gN_cache_sk_type(ptr noundef %0) #3 {
  %2 = alloca ptr, align 8
  store ptr %0, ptr %2, align 8, !tbaa !30
  %3 = load ptr, ptr %2, align 8, !tbaa !30
  ret ptr %3
}

; Function Attrs: nounwind uwtable
define internal ptr @SRP_gN_new_init(ptr noundef %0) #0 {
  %2 = alloca ptr, align 8
  %3 = alloca ptr, align 8
  %4 = alloca [2500 x i8], align 16
  %5 = alloca i32, align 4
  %6 = alloca ptr, align 8
  %7 = alloca i32, align 4
  store ptr %0, ptr %3, align 8, !tbaa !18
  call void @llvm.lifetime.start.p0(i64 2500, ptr %4) #7
  call void @llvm.lifetime.start.p0(i64 4, ptr %5) #7
  call void @llvm.lifetime.start.p0(i64 8, ptr %6) #7
  %8 = call noalias ptr @CRYPTO_malloc(i64 noundef 16, ptr noundef @.str, i32 noundef 316)
  store ptr %8, ptr %6, align 8, !tbaa !57
  %9 = load ptr, ptr %6, align 8, !tbaa !57
  %10 = icmp eq ptr %9, null
  br i1 %10, label %11, label %12

11:                                               ; preds = %1
  store ptr null, ptr %2, align 8
  store i32 1, ptr %7, align 4
  br label %41

12:                                               ; preds = %1
  %13 = getelementptr inbounds [2500 x i8], ptr %4, i64 0, i64 0
  %14 = load ptr, ptr %3, align 8, !tbaa !18
  %15 = call i32 @t_fromb64(ptr noundef %13, i64 noundef 2500, ptr noundef %14)
  store i32 %15, ptr %5, align 4, !tbaa !32
  %16 = load i32, ptr %5, align 4, !tbaa !32
  %17 = icmp slt i32 %16, 0
  br i1 %17, label %18, label %19

18:                                               ; preds = %12
  br label %39

19:                                               ; preds = %12
  %20 = load ptr, ptr %3, align 8, !tbaa !18
  %21 = call noalias ptr @CRYPTO_strdup(ptr noundef %20, ptr noundef @.str, i32 noundef 325)
  %22 = load ptr, ptr %6, align 8, !tbaa !57
  %23 = getelementptr inbounds nuw %struct.SRP_gN_cache_st, ptr %22, i32 0, i32 0
  store ptr %21, ptr %23, align 8, !tbaa !59
  %24 = icmp eq ptr %21, null
  br i1 %24, label %25, label %26

25:                                               ; preds = %19
  br label %39

26:                                               ; preds = %19
  %27 = getelementptr inbounds [2500 x i8], ptr %4, i64 0, i64 0
  %28 = load i32, ptr %5, align 4, !tbaa !32
  %29 = call ptr @BN_bin2bn(ptr noundef %27, i32 noundef %28, ptr noundef null)
  %30 = load ptr, ptr %6, align 8, !tbaa !57
  %31 = getelementptr inbounds nuw %struct.SRP_gN_cache_st, ptr %30, i32 0, i32 1
  store ptr %29, ptr %31, align 8, !tbaa !61
  %32 = icmp ne ptr %29, null
  br i1 %32, label %33, label %35

33:                                               ; preds = %26
  %34 = load ptr, ptr %6, align 8, !tbaa !57
  store ptr %34, ptr %2, align 8
  store i32 1, ptr %7, align 4
  br label %41

35:                                               ; preds = %26
  %36 = load ptr, ptr %6, align 8, !tbaa !57
  %37 = getelementptr inbounds nuw %struct.SRP_gN_cache_st, ptr %36, i32 0, i32 0
  %38 = load ptr, ptr %37, align 8, !tbaa !59
  call void @CRYPTO_free(ptr noundef %38, ptr noundef @.str, i32 noundef 331)
  br label %39

39:                                               ; preds = %35, %25, %18
  %40 = load ptr, ptr %6, align 8, !tbaa !57
  call void @CRYPTO_free(ptr noundef %40, ptr noundef @.str, i32 noundef 333)
  store ptr null, ptr %2, align 8
  store i32 1, ptr %7, align 4
  br label %41

41:                                               ; preds = %39, %33, %11
  call void @llvm.lifetime.end.p0(i64 8, ptr %6) #7
  call void @llvm.lifetime.end.p0(i64 4, ptr %5) #7
  call void @llvm.lifetime.end.p0(i64 2500, ptr %4) #7
  %42 = load ptr, ptr %2, align 8
  ret ptr %42
}

; Function Attrs: inlinehint nounwind uwtable
define internal ptr @ossl_check_const_SRP_gN_cache_sk_type(ptr noundef %0) #3 {
  %2 = alloca ptr, align 8
  store ptr %0, ptr %2, align 8, !tbaa !30
  %3 = load ptr, ptr %2, align 8, !tbaa !30
  ret ptr %3
}

; Function Attrs: nounwind uwtable
define internal ptr @SRP_gN_place_bn(ptr noundef %0, ptr noundef %1) #0 {
  %3 = alloca ptr, align 8
  %4 = alloca ptr, align 8
  %5 = alloca ptr, align 8
  %6 = alloca i32, align 4
  %7 = alloca i32, align 4
  %8 = alloca ptr, align 8
  %9 = alloca ptr, align 8
  store ptr %0, ptr %4, align 8, !tbaa !30
  store ptr %1, ptr %5, align 8, !tbaa !18
  call void @llvm.lifetime.start.p0(i64 4, ptr %6) #7
  %10 = load ptr, ptr %4, align 8, !tbaa !30
  %11 = icmp eq ptr %10, null
  br i1 %11, label %12, label %13

12:                                               ; preds = %2
  store ptr null, ptr %3, align 8
  store i32 1, ptr %7, align 4
  br label %64

13:                                               ; preds = %2
  store i32 0, ptr %6, align 4, !tbaa !32
  br label %14

14:                                               ; preds = %39, %13
  %15 = load i32, ptr %6, align 4, !tbaa !32
  %16 = load ptr, ptr %4, align 8, !tbaa !30
  %17 = call ptr @ossl_check_const_SRP_gN_cache_sk_type(ptr noundef %16)
  %18 = call i32 @OPENSSL_sk_num(ptr noundef %17)
  %19 = icmp slt i32 %15, %18
  br i1 %19, label %20, label %42

20:                                               ; preds = %14
  call void @llvm.lifetime.start.p0(i64 8, ptr %8) #7
  %21 = load ptr, ptr %4, align 8, !tbaa !30
  %22 = call ptr @ossl_check_const_SRP_gN_cache_sk_type(ptr noundef %21)
  %23 = load i32, ptr %6, align 4, !tbaa !32
  %24 = call ptr @OPENSSL_sk_value(ptr noundef %22, i32 noundef %23)
  store ptr %24, ptr %8, align 8, !tbaa !57
  %25 = load ptr, ptr %8, align 8, !tbaa !57
  %26 = getelementptr inbounds nuw %struct.SRP_gN_cache_st, ptr %25, i32 0, i32 0
  %27 = load ptr, ptr %26, align 8, !tbaa !59
  %28 = load ptr, ptr %5, align 8, !tbaa !18
  %29 = call i32 @strcmp(ptr noundef %27, ptr noundef %28) #8
  %30 = icmp eq i32 %29, 0
  br i1 %30, label %31, label %35

31:                                               ; preds = %20
  %32 = load ptr, ptr %8, align 8, !tbaa !57
  %33 = getelementptr inbounds nuw %struct.SRP_gN_cache_st, ptr %32, i32 0, i32 1
  %34 = load ptr, ptr %33, align 8, !tbaa !61
  store ptr %34, ptr %3, align 8
  store i32 1, ptr %7, align 4
  br label %36

35:                                               ; preds = %20
  store i32 0, ptr %7, align 4
  br label %36

36:                                               ; preds = %35, %31
  call void @llvm.lifetime.end.p0(i64 8, ptr %8) #7
  %37 = load i32, ptr %7, align 4
  switch i32 %37, label %64 [
    i32 0, label %38
  ]

38:                                               ; preds = %36
  br label %39

39:                                               ; preds = %38
  %40 = load i32, ptr %6, align 4, !tbaa !32
  %41 = add nsw i32 %40, 1
  store i32 %41, ptr %6, align 4, !tbaa !32
  br label %14, !llvm.loop !62

42:                                               ; preds = %14
  call void @llvm.lifetime.start.p0(i64 8, ptr %9) #7
  %43 = load ptr, ptr %5, align 8, !tbaa !18
  %44 = call ptr @SRP_gN_new_init(ptr noundef %43)
  store ptr %44, ptr %9, align 8, !tbaa !57
  %45 = load ptr, ptr %9, align 8, !tbaa !57
  %46 = icmp ne ptr %45, null
  br i1 %46, label %47, label %60

47:                                               ; preds = %42
  %48 = load ptr, ptr %4, align 8, !tbaa !30
  %49 = call ptr @ossl_check_SRP_gN_cache_sk_type(ptr noundef %48)
  %50 = load ptr, ptr %9, align 8, !tbaa !57
  %51 = call ptr @ossl_check_SRP_gN_cache_type(ptr noundef %50)
  %52 = call i32 @OPENSSL_sk_insert(ptr noundef %49, ptr noundef %51, i32 noundef 0)
  %53 = icmp sgt i32 %52, 0
  br i1 %53, label %54, label %58

54:                                               ; preds = %47
  %55 = load ptr, ptr %9, align 8, !tbaa !57
  %56 = getelementptr inbounds nuw %struct.SRP_gN_cache_st, ptr %55, i32 0, i32 1
  %57 = load ptr, ptr %56, align 8, !tbaa !61
  store ptr %57, ptr %3, align 8
  store i32 1, ptr %7, align 4
  br label %61

58:                                               ; preds = %47
  %59 = load ptr, ptr %9, align 8, !tbaa !57
  call void @SRP_gN_free(ptr noundef %59)
  br label %60

60:                                               ; preds = %58, %42
  store i32 0, ptr %7, align 4
  br label %61

61:                                               ; preds = %60, %54
  call void @llvm.lifetime.end.p0(i64 8, ptr %9) #7
  %62 = load i32, ptr %7, align 4
  switch i32 %62, label %64 [
    i32 0, label %63
  ]

63:                                               ; preds = %61
  store ptr null, ptr %3, align 8
  store i32 1, ptr %7, align 4
  br label %64

64:                                               ; preds = %63, %61, %36, %12
  call void @llvm.lifetime.end.p0(i64 4, ptr %6) #7
  %65 = load ptr, ptr %3, align 8
  ret ptr %65
}