; Function Attrs: nounwind uwtable
define internal fastcc ptr @SRP_gN_place_bn(ptr noundef %0, ptr noundef %1) unnamed_addr #0 {
  %3 = alloca [2500 x i8], align 16
  %4 = icmp eq ptr %0, null
  br i1 %4, label %37, label %.preheader

.preheader:                                       ; preds = %2
  %5 = tail call i32 @OPENSSL_sk_num(ptr noundef nonnull %0) #7
  %6 = icmp sgt i32 %5, 0
  br i1 %6, label %.lr.ph, label %._crit_edge

7:                                                ; preds = %.lr.ph
  %8 = add nuw nsw i32 %.01830, 1
  %9 = tail call i32 @OPENSSL_sk_num(ptr noundef nonnull %0) #7
  %10 = icmp slt i32 %8, %9
  br i1 %10, label %.lr.ph, label %._crit_edge, !llvm.loop !39

.lr.ph:                                           ; preds = %.preheader, %7
  %.01830 = phi i32 [ %8, %7 ], [ 0, %.preheader ]
  %11 = tail call ptr @OPENSSL_sk_value(ptr noundef nonnull %0, i32 noundef %.01830) #7
  %12 = load ptr, ptr %11, align 8, !tbaa !40
  %13 = tail call i32 @strcmp(ptr noundef nonnull dereferenceable(1) %12, ptr noundef nonnull dereferenceable(1) %1) #8
  %.not23 = icmp eq i32 %13, 0
  br i1 %.not23, label %.thread, label %7

.thread:                                          ; preds = %.lr.ph
  %14 = getelementptr inbounds nuw i8, ptr %11, i64 8
  %15 = load ptr, ptr %14, align 8, !tbaa !42
  br label %37

._crit_edge:                                      ; preds = %7, %.preheader
  call void @llvm.lifetime.start.p0(i64 2500, ptr nonnull %3) #7
  %16 = tail call noalias ptr @CRYPTO_malloc(i64 noundef 16, ptr noundef nonnull @.str, i32 noundef 316) #7
  %17 = icmp eq ptr %16, null
  br i1 %17, label %SRP_gN_new_init.exit.thread, label %18

18:                                               ; preds = %._crit_edge
  %19 = call fastcc i32 @t_fromb64(ptr noundef %3, ptr noundef %1)
  %20 = icmp slt i32 %19, 0
  br i1 %20, label %28, label %21

21:                                               ; preds = %18
  %22 = call noalias ptr @CRYPTO_strdup(ptr noundef %1, ptr noundef nonnull @.str, i32 noundef 325) #7
  store ptr %22, ptr %16, align 8, !tbaa !40
  %23 = icmp eq ptr %22, null
  br i1 %23, label %28, label %24

24:                                               ; preds = %21
  %25 = call ptr @BN_bin2bn(ptr noundef nonnull %3, i32 noundef %19, ptr noundef null) #7
  %26 = getelementptr inbounds nuw i8, ptr %16, i64 8
  store ptr %25, ptr %26, align 8, !tbaa !42
  %.not.i = icmp eq ptr %25, null
  br i1 %.not.i, label %27, label %29

27:                                               ; preds = %24
  call void @CRYPTO_free(ptr noundef nonnull %22, ptr noundef nonnull @.str, i32 noundef 331) #7
  br label %28

28:                                               ; preds = %27, %21, %18
  call void @CRYPTO_free(ptr noundef nonnull %16, ptr noundef nonnull @.str, i32 noundef 333) #7
  br label %SRP_gN_new_init.exit.thread

SRP_gN_new_init.exit.thread:                      ; preds = %28, %._crit_edge
  call void @llvm.lifetime.end.p0(i64 2500, ptr nonnull %3) #7
  br label %37

29:                                               ; preds = %24
  call void @llvm.lifetime.end.p0(i64 2500, ptr nonnull %3) #7
  %30 = call i32 @OPENSSL_sk_insert(ptr noundef nonnull %0, ptr noundef nonnull %16, i32 noundef 0) #7
  %31 = icmp sgt i32 %30, 0
  br i1 %31, label %35, label %32

32:                                               ; preds = %29
  %33 = load ptr, ptr %16, align 8, !tbaa !40
  call void @CRYPTO_free(ptr noundef %33, ptr noundef nonnull @.str, i32 noundef 341) #7
  %34 = load ptr, ptr %26, align 8, !tbaa !42
  call void @BN_free(ptr noundef %34) #7
  call void @CRYPTO_free(ptr noundef nonnull %16, ptr noundef nonnull @.str, i32 noundef 343) #7
  br label %37

35:                                               ; preds = %29
  %36 = load ptr, ptr %26, align 8, !tbaa !42
  br label %37

37:                                               ; preds = %35, %32, %SRP_gN_new_init.exit.thread, %.thread, %2
  %.0 = phi ptr [ null, %2 ], [ %15, %.thread ], [ %36, %35 ], [ null, %32 ], [ null, %SRP_gN_new_init.exit.thread ]
  ret ptr %.0
}